; Function Attrs: mustprogress uwtable
define internal fastcc noundef i32 @_ZN17double_conversionL22CompareBufferWithDiyFpENS_6VectorIKcEEiNS_5DiyFpE(ptr %0, i32 %1, i32 noundef %2, i64 %3, i32 %4) unnamed_addr #0 {
  %6 = alloca %"class.double_conversion::Bignum", align 4
  %7 = alloca %"class.double_conversion::Bignum", align 4
  call void @llvm.lifetime.start.p0(i64 516, ptr nonnull %6) #6
  store i16 0, ptr %6, align 4, !tbaa !20
  %8 = getelementptr inbounds nuw i8, ptr %6, i64 2
  store i16 0, ptr %8, align 2, !tbaa !23
  call void @llvm.lifetime.start.p0(i64 516, ptr nonnull %7) #6
  store i16 0, ptr %7, align 4, !tbaa !20
  %9 = getelementptr inbounds nuw i8, ptr %7, i64 2
  store i16 0, ptr %9, align 2, !tbaa !23
  call void @_ZN17double_conversion6Bignum19AssignDecimalStringENS_6VectorIKcEE(ptr noundef nonnull align 4 dereferenceable(516) %6, ptr %0, i32 %1)
  call void @_ZN17double_conversion6Bignum12AssignUInt64Em(ptr noundef nonnull align 4 dereferenceable(516) %7, i64 noundef %3)
  %10 = icmp sgt i32 %2, -1
  br i1 %10, label %11, label %12

11:                                               ; preds = %5
  call void @_ZN17double_conversion6Bignum20MultiplyByPowerOfTenEi(ptr noundef nonnull align 4 dereferenceable(516) %6, i32 noundef %2)
  br label %14

12:                                               ; preds = %5
  %13 = sub nsw i32 0, %2
  call void @_ZN17double_conversion6Bignum20MultiplyByPowerOfTenEi(ptr noundef nonnull align 4 dereferenceable(516) %7, i32 noundef %13)
  br label %14

14:                                               ; preds = %12, %11
  %15 = icmp sgt i32 %4, 0
  br i1 %15, label %16, label %17

16:                                               ; preds = %14
  call void @_ZN17double_conversion6Bignum9ShiftLeftEi(ptr noundef nonnull align 4 dereferenceable(516) %7, i32 noundef %4)
  br label %19

17:                                               ; preds = %14
  %18 = sub nsw i32 0, %4
  call void @_ZN17double_conversion6Bignum9ShiftLeftEi(ptr noundef nonnull align 4 dereferenceable(516) %6, i32 noundef %18)
  br label %19

19:                                               ; preds = %17, %16
  %20 = call noundef i32 @_ZN17double_conversion6Bignum7CompareERKS0_S2_(ptr noundef nonnull align 4 dereferenceable(516) %6, ptr noundef nonnull align 4 dereferenceable(516) %7)
  call void @llvm.lifetime.end.p0(i64 516, ptr nonnull %7) #6
  call void @llvm.lifetime.end.p0(i64 516, ptr nonnull %6) #6
  ret i32 %20
}